; Function Attrs: mustprogress uwtable
define void @_ZN3zmq13socket_base_t12process_stopEv(ptr noundef nonnull align 8 dereferenceable(1825) %0) unnamed_addr #0 align 2 personality ptr @__gxx_personality_v0 {
  %2 = alloca %"struct.zmq::scoped_lock_t", align 8
  call void @llvm.lifetime.start.p0(i64 8, ptr nonnull %2) #36
  %3 = getelementptr inbounds nuw i8, ptr %0, i64 1776
  store ptr %3, ptr %2, align 8, !tbaa !151
  %4 = tail call i32 @pthread_mutex_lock(ptr noundef nonnull align 8 dereferenceable(44) %3) #36
  %.not.i.i = icmp eq i32 %4, 0
  br i1 %.not.i.i, label %_ZN3zmq13scoped_lock_tC2ERNS_7mutex_tE.exit, label %5, !prof !116

5:                                                ; preds = %1
  %6 = tail call ptr @strerror(i32 noundef %4) #36
  %7 = load ptr, ptr @stderr, align 8, !tbaa !100
  %8 = tail call i32 (ptr, ptr, ...) @fprintf(ptr noundef %7, ptr noundef nonnull @.str.9, ptr noundef %6, ptr noundef nonnull @.str.23, i32 noundef 109) #42
  %9 = load ptr, ptr @stderr, align 8, !tbaa !100
  %10 = tail call i32 @fflush(ptr noundef %9)
  tail call void @_ZN3zmq9zmq_abortEPKc(ptr noundef %6)
  br label %_ZN3zmq13scoped_lock_tC2ERNS_7mutex_tE.exit

_ZN3zmq13scoped_lock_tC2ERNS_7mutex_tE.exit:      ; preds = %1, %5
  invoke void @_ZN3zmq13socket_base_t12stop_monitorEb(ptr noundef nonnull align 8 dereferenceable(1825) %0, i1 noundef zeroext true)
          to label %11 unwind label %23

11:                                               ; preds = %_ZN3zmq13scoped_lock_tC2ERNS_7mutex_tE.exit
  %12 = getelementptr inbounds nuw i8, ptr %0, i64 1628
  store i8 1, ptr %12, align 4, !tbaa !109
  %13 = tail call i32 @pthread_mutex_unlock(ptr noundef nonnull align 8 dereferenceable(44) %3) #36
  %.not.i.i2 = icmp eq i32 %13, 0
  br i1 %.not.i.i2, label %_ZN3zmq13scoped_lock_tD2Ev.exit, label %14, !prof !116

14:                                               ; preds = %11
  %15 = tail call ptr @strerror(i32 noundef %13) #36
  %16 = load ptr, ptr @stderr, align 8, !tbaa !100
  %17 = tail call i32 (ptr, ptr, ...) @fprintf(ptr noundef %16, ptr noundef nonnull @.str.9, ptr noundef %15, ptr noundef nonnull @.str.23, i32 noundef 125) #42
  %18 = load ptr, ptr @stderr, align 8, !tbaa !100
  %19 = tail call i32 @fflush(ptr noundef %18)
  invoke void @_ZN3zmq9zmq_abortEPKc(ptr noundef %15)
          to label %_ZN3zmq13scoped_lock_tD2Ev.exit unwind label %20

20:                                               ; preds = %14
  %21 = landingpad { ptr, i32 }
          catch ptr null
  %22 = extractvalue { ptr, i32 } %21, 0
  tail call void @__clang_call_terminate(ptr %22) #43
  unreachable

_ZN3zmq13scoped_lock_tD2Ev.exit:                  ; preds = %11, %14
  call void @llvm.lifetime.end.p0(i64 8, ptr nonnull %2) #36
  ret void

23:                                               ; preds = %_ZN3zmq13scoped_lock_tC2ERNS_7mutex_tE.exit
  %24 = landingpad { ptr, i32 }
          cleanup
  call void @_ZN3zmq13scoped_lock_tD2Ev(ptr noundef nonnull align 8 dereferenceable(8) %2) #36
  call void @llvm.lifetime.end.p0(i64 8, ptr nonnull %2) #36
  resume { ptr, i32 } %24
}